; Function Attrs: nofree norecurse nosync nounwind memory(readwrite, inaccessiblemem: none) uwtable
define void @Abc_NtkInvertConstraints(ptr noundef readonly captures(none) %0) local_unnamed_addr #5 {
  %2 = getelementptr i8, ptr %0, i64 144
  %.val11 = load i32, ptr %2, align 8
  %3 = icmp eq i32 %.val11, 0
  br i1 %3, label %.critedge, label %.preheader

.preheader:                                       ; preds = %1
  %4 = getelementptr i8, ptr %0, i64 48
  %.val913 = load ptr, ptr %4, align 8
  %5 = getelementptr i8, ptr %.val913, i64 4
  %.val9.val14 = load i32, ptr %5, align 4
  %6 = icmp sgt i32 %.val9.val14, 0
  br i1 %6, label %.lr.ph, label %.critedge

.lr.ph:                                           ; preds = %.preheader, %16
  %.val919 = phi ptr [ %.val9, %16 ], [ %.val913, %.preheader ]
  %indvars.iv = phi i64 [ %indvars.iv.next, %16 ], [ 0, %.preheader ]
  %.val9.val17 = phi i32 [ %.val9.val, %16 ], [ %.val9.val14, %.preheader ]
  %.val12 = load i32, ptr %2, align 8
  %7 = sub nsw i32 %.val9.val17, %.val12
  %8 = sext i32 %7 to i64
  %.not = icmp slt i64 %indvars.iv, %8
  br i1 %.not, label %16, label %9

9:                                                ; preds = %.lr.ph
  %10 = getelementptr i8, ptr %.val919, i64 8
  %.val10.val = load ptr, ptr %10, align 8
  %11 = getelementptr inbounds nuw ptr, ptr %.val10.val, i64 %indvars.iv
  %12 = load ptr, ptr %11, align 8
  %13 = getelementptr inbounds nuw i8, ptr %12, i64 20
  %14 = load i32, ptr %13, align 4
  %15 = xor i32 %14, 1024
  store i32 %15, ptr %13, align 4
  %.val9.pre = load ptr, ptr %4, align 8
  br label %16

16:                                               ; preds = %.lr.ph, %9
  %.val9 = phi ptr [ %.val919, %.lr.ph ], [ %.val9.pre, %9 ]
  %indvars.iv.next = add nuw nsw i64 %indvars.iv, 1
  %17 = getelementptr i8, ptr %.val9, i64 4
  %.val9.val = load i32, ptr %17, align 4
  %18 = sext i32 %.val9.val to i64
  %19 = icmp slt i64 %indvars.iv.next, %18
  br i1 %19, label %.lr.ph, label %.critedge, !llvm.loop !97

.critedge:                                        ; preds = %16, %.preheader, %1
  ret void
}